Certificate:
    Data:
        Version: 3 (0x2)
        Serial Number:
            0f:4e:f3:42:d2:38:07:ed:7f:70:aa:c3:e9:01:c8:b6:6e:36:c6:2a
        Signature Algorithm: sm3WithSM2Sign
        Issuer: CN = intca-sm2sm2-sm2sm2
        Validity
            Not Before: Sep 11 20:15:16 2021 GMT
            Not After : Sep  9 20:15:16 2031 GMT
        Subject: CN = ee-sm2sm2-sm2sm2-sm2sm2
        Subject Public Key Info:
            Public Key Algorithm: id-ecPublicKey
                Public-Key: (256 bit)
                pub:
                    04:7b:9a:74:83:de:13:93:f7:7f:e3:30:44:79:97:
                    f1:2e:97:4e:d9:70:2b:ee:fd:83:35:a4:c3:85:8b:
                    53:3f:3a:a9:eb:cb:37:52:ea:38:51:a4:18:a4:96:
                    53:00:48:e6:0b:73:d7:8d:ce:30:4e:51:28:f6:3e:
                    f8:d3:83:00:e4
                ASN1 OID: SM2
        X509v3 extensions:
            X509v3 Subject Key Identifier:
                D0:BD:67:9E:17:06:7C:B9:4D:89:59:D3:D5:6F:14:AD:26:5D:8E:70
            X509v3 Authority Key Identifier:
                keyid:BD:AA:64:6D:4D:40:33:81:B7:50:B3:4D:2F:12:7D:8E:A6:EF:64:42

    Signature Algorithm: sm3WithSM2Sign
         30:44:02:20:5e:8c:85:a5:29:06:25:06:7a:12:cf:b7:51:7c:
         fe:c3:c0:fc:3d:7d:c0:75:e8:ce:7e:9c:18:aa:f4:39:d8:d9:
         02:20:0a:ba:a5:ae:d7:34:f0:c0:b0:84:bd:ce:91:a0:23:dd:
         c4:2f:cc:f0:95:21:ee:da:37:15:2e:18:f4:38:2c:86
-----BEGIN CERTIFICATE-----
MIIBgzCCASqgAwIBAgIUD07zQtI4B+1/cKrD6QHItm42xiowCgYIKoEcz1UBg3Uw
HjEcMBoGA1UEAwwTaW50Y2Etc20yc20yLXNtMnNtMjAeFw0yMTA5MTEyMDE1MTZa
Fw0zMTA5MDkyMDE1MTZaMCIxIDAeBgNVBAMMF2VlLXNtMnNtMi1zbTJzbTItc20y
c20yMFkwEwYHKoZIzj0CAQYIKoEcz1UBgi0DQgAEe5p0g94Tk/d/4zBEeZfxLpdO
2XAr7v2DNaTDhYtTPzqp68s3Uuo4UaQYpJZTAEjmC3PXjc4wTlEo9j7404MA5KNC
MEAwHQYDVR0OBBYEFNC9Z54XBny5TYlZ09VvFK0mXY5wMB8GA1UdIwQYMBaAFL2q
ZG1NQDOBt1CzTS8SfY6m72RCMAoGCCqBHM9VAYN1A0cAMEQCIF6MhaUpBiUGehLP
t1F8/sPA/D19wHXozn6cGKr0OdjZAiAKuqWu1zTwwLCEvc6RoCPdxC/M8JUh7to3
FS4Y9Dgshg==
-----END CERTIFICATE-----
