Certificate:
    Data:
        Version: 3 (0x2)
        Serial Number:
            46:73:72:37:54:46:dd:3f:6c:7a:e9:34:68:c3:df:cb:ca:60:76:84
        Signature Algorithm: SM2-with-SM3
        Issuer: CN = sm-intca
        Validity
            Not Before: Jun  8 06:28:28 2022 GMT
            Not After : Jun  5 06:28:28 2032 GMT
        Subject: CN = sm-server-enc
        Subject Public Key Info:
            Public Key Algorithm: id-ecPublicKey
                Public-Key: (256 bit)
                pub:
                    04:6d:85:ab:56:0a:87:e8:77:12:f4:5e:3c:0d:ab:
                    9b:1f:ae:93:b5:7d:a1:6d:e2:42:14:cf:45:78:34:
                    ac:8c:8c:59:d5:7f:82:39:19:f2:ca:52:84:29:cb:
                    05:cf:e8:8a:73:1f:af:10:05:cb:a9:cb:4d:f8:00:
                    84:82:43:18:3e
                ASN1 OID: SM2
        X509v3 extensions:
            X509v3 Subject Key Identifier:
                AA:A0:8D:40:6D:68:A4:00:0F:AA:25:C1:83:1F:CC:46:8D:BF:53:88
            X509v3 Authority Key Identifier:
                keyid:D7:88:1E:5B:30:5F:FB:DF:F5:D3:97:3C:E6:74:07:CA:51:A7:FC:99

            X509v3 Basic Constraints: critical
                CA:FALSE
            X509v3 Key Usage: critical
                Key Encipherment, Data Encipherment, Key Agreement
    Signature Algorithm: SM2-with-SM3
         30:45:02:20:5f:35:78:20:4f:70:7b:71:54:78:f6:dd:d3:84:
         e2:4f:e9:92:47:1b:4a:cc:10:a0:d9:06:62:8a:36:b0:50:c3:
         02:21:00:d1:86:db:4d:81:64:b4:a0:29:60:20:8f:29:e9:9b:
         58:58:1d:31:48:13:76:90:d7:5f:d4:0f:34:53:a5:18:a8
-----BEGIN CERTIFICATE-----
MIIBjTCCATOgAwIBAgIURnNyN1RG3T9seuk0aMPfy8pgdoQwCgYIKoEcz1UBg3Uw
EzERMA8GA1UEAwwIc20taW50Y2EwHhcNMjIwNjA4MDYyODI4WhcNMzIwNjA1MDYy
ODI4WjAYMRYwFAYDVQQDDA1zbS1zZXJ2ZXItZW5jMFkwEwYHKoZIzj0CAQYIKoEc
z1UBgi0DQgAEbYWrVgqH6HcS9F48DaubH66TtX2hbeJCFM9FeDSsjIxZ1X+CORny
ylKEKcsFz+iKcx+vEAXLqctN+ACEgkMYPqNgMF4wHQYDVR0OBBYEFKqgjUBtaKQA
D6olwYMfzEaNv1OIMB8GA1UdIwQYMBaAFNeIHlswX/vf9dOXPOZ0B8pRp/yZMAwG
A1UdEwEB/wQCMAAwDgYDVR0PAQH/BAQDAgM4MAoGCCqBHM9VAYN1A0gAMEUCIF81
eCBPcHtxVHj23dOE4k/pkkcbSswQoNkGYoo2sFDDAiEA0YbbTYFktKApYCCPKemb
WFgdMUgTdpDXX9QPNFOlGKg=
-----END CERTIFICATE-----

Certificate:
    Data:
        Version: 3 (0x2)
        Serial Number:
            6e:3a:d6:c9:67:09:f4:62:db:7c:2c:33:8b:34:ec:cd:04:dc:3e:73
        Signature Algorithm: SM2-with-SM3
        Issuer: CN = sm-ca
        Validity
            Not Before: Jun  8 06:28:27 2022 GMT
            Not After : Jun  5 06:28:27 2032 GMT
        Subject: CN = sm-intca
        Subject Public Key Info:
            Public Key Algorithm: id-ecPublicKey
                Public-Key: (256 bit)
                pub:
                    04:46:ed:18:4f:4c:03:18:03:3c:aa:3e:b7:1c:81:
                    f7:0e:06:d2:d9:8e:53:18:b7:f4:a3:a9:6b:d3:ab:
                    9f:5e:52:6e:48:e5:da:ce:d1:a7:89:14:55:f5:2e:
                    03:e0:42:a5:fc:3f:e7:6a:8d:d9:cf:0d:d9:90:a7:
                    4a:0d:6b:27:2b
                ASN1 OID: SM2
        X509v3 extensions:
            X509v3 Subject Key Identifier:
                D7:88:1E:5B:30:5F:FB:DF:F5:D3:97:3C:E6:74:07:CA:51:A7:FC:99
            X509v3 Authority Key Identifier:
                keyid:30:2A:04:98:E7:26:B1:92:73:D8:2D:A8:4D:E2:B1:4D:71:AE:90:5B

            X509v3 Basic Constraints: critical
                CA:TRUE
            X509v3 Key Usage: critical
                Digital Signature, Certificate Sign, CRL Sign
    Signature Algorithm: SM2-with-SM3
         30:44:02:20:46:04:f3:5a:02:e2:d2:8b:57:60:fb:14:4a:ba:
         f6:10:ae:14:43:00:de:94:22:2f:9e:6b:0b:b4:fc:71:f1:62:
         02:20:30:54:30:05:db:ad:ec:a8:da:2b:96:8b:00:75:fd:c7:
         90:62:a9:aa:ae:a2:7b:c5:ac:b3:9c:36:3b:ba:57:69
-----BEGIN CERTIFICATE-----
MIIBhzCCAS6gAwIBAgIUbjrWyWcJ9GLbfCwzizTszQTcPnMwCgYIKoEcz1UBg3Uw
EDEOMAwGA1UEAwwFc20tY2EwHhcNMjIwNjA4MDYyODI3WhcNMzIwNjA1MDYyODI3
WjATMREwDwYDVQQDDAhzbS1pbnRjYTBZMBMGByqGSM49AgEGCCqBHM9VAYItA0IA
BEbtGE9MAxgDPKo+txyB9w4G0tmOUxi39KOpa9Orn15Sbkjl2s7Rp4kUVfUuA+BC
pfw/52qN2c8N2ZCnSg1rJyujYzBhMB0GA1UdDgQWBBTXiB5bMF/73/XTlzzmdAfK
Uaf8mTAfBgNVHSMEGDAWgBQwKgSY5yaxknPYLahN4rFNca6QWzAPBgNVHRMBAf8E
BTADAQH/MA4GA1UdDwEB/wQEAwIBhjAKBggqgRzPVQGDdQNHADBEAiBGBPNaAuLS
i1dg+xRKuvYQrhRDAN6UIi+eawu0/HHxYgIgMFQwBdut7KjaK5aLAHX9x5Biqaqu
onvFrLOcNju6V2k=
-----END CERTIFICATE-----
