-----BEGIN PRIVATE KEY-----
MIGHAgEAMBMGByqGSM49AgEGCCqBHM9VAYItBG0wawIBAQQgspX2f6VUT/hdUrxn
uIb4vhs+BJhZwR+71ZhgF2xUKYehRANCAATEFz0h4202+wCUrwmKkLDTpVISethm
t5M28rSIFH9DP5TW3vGWwSItcM7K6/onm6YeGOCLCQAXfj5gnkcXjhVm
-----END PRIVATE KEY-----

Certificate:
    Data:
        Version: 3 (0x2)
        Serial Number:
            46:73:72:37:54:46:dd:3f:6c:7a:e9:34:68:c3:df:cb:ca:60:76:81
        Signature Algorithm: SM2-with-SM3
        Issuer: CN = sm-intca
        Validity
            Not Before: Jun  8 06:28:28 2022 GMT
            Not After : Jun  5 06:28:28 2032 GMT
        Subject: CN = sm-server-sign
        Subject Public Key Info:
            Public Key Algorithm: id-ecPublicKey
                Public-Key: (256 bit)
                pub:
                    04:c4:17:3d:21:e3:6d:36:fb:00:94:af:09:8a:90:
                    b0:d3:a5:52:12:7a:d8:66:b7:93:36:f2:b4:88:14:
                    7f:43:3f:94:d6:de:f1:96:c1:22:2d:70:ce:ca:eb:
                    fa:27:9b:a6:1e:18:e0:8b:09:00:17:7e:3e:60:9e:
                    47:17:8e:15:66
                ASN1 OID: SM2
        X509v3 extensions:
            X509v3 Subject Key Identifier:
                97:01:4A:40:59:18:F5:3E:E0:08:73:CD:DC:E1:F2:6B:BF:4F:FE:16
            X509v3 Authority Key Identifier:
                keyid:D7:88:1E:5B:30:5F:FB:DF:F5:D3:97:3C:E6:74:07:CA:51:A7:FC:99

            X509v3 Basic Constraints: critical
                CA:FALSE
            X509v3 Key Usage: critical
                Digital Signature
    Signature Algorithm: SM2-with-SM3
         30:45:02:20:6a:29:66:81:87:38:45:1a:61:8c:6f:e4:55:da:
         2d:52:6c:7d:2b:ea:d6:9d:cd:d6:a3:aa:74:07:64:07:26:90:
         02:21:00:b1:ff:83:fc:30:8d:58:32:89:83:ad:20:29:57:a9:
         4d:36:4a:14:2b:56:10:01:bb:b8:db:ec:86:ef:6f:b6:9f
-----BEGIN CERTIFICATE-----
MIIBjjCCATSgAwIBAgIURnNyN1RG3T9seuk0aMPfy8pgdoEwCgYIKoEcz1UBg3Uw
EzERMA8GA1UEAwwIc20taW50Y2EwHhcNMjIwNjA4MDYyODI4WhcNMzIwNjA1MDYy
ODI4WjAZMRcwFQYDVQQDDA5zbS1zZXJ2ZXItc2lnbjBZMBMGByqGSM49AgEGCCqB
HM9VAYItA0IABMQXPSHjbTb7AJSvCYqQsNOlUhJ62Ga3kzbytIgUf0M/lNbe8ZbB
Ii1wzsrr+iebph4Y4IsJABd+PmCeRxeOFWajYDBeMB0GA1UdDgQWBBSXAUpAWRj1
PuAIc83c4fJrv0/+FjAfBgNVHSMEGDAWgBTXiB5bMF/73/XTlzzmdAfKUaf8mTAM
BgNVHRMBAf8EAjAAMA4GA1UdDwEB/wQEAwIHgDAKBggqgRzPVQGDdQNIADBFAiBq
KWaBhzhFGmGMb+RV2i1SbH0r6tadzdajqnQHZAcmkAIhALH/g/wwjVgyiYOtIClX
qU02ShQrVhABu7jb7Ibvb7af
-----END CERTIFICATE-----

Certificate:
    Data:
        Version: 3 (0x2)
        Serial Number:
            6e:3a:d6:c9:67:09:f4:62:db:7c:2c:33:8b:34:ec:cd:04:dc:3e:73
        Signature Algorithm: SM2-with-SM3
        Issuer: CN = sm-ca
        Validity
            Not Before: Jun  8 06:28:27 2022 GMT
            Not After : Jun  5 06:28:27 2032 GMT
        Subject: CN = sm-intca
        Subject Public Key Info:
            Public Key Algorithm: id-ecPublicKey
                Public-Key: (256 bit)
                pub:
                    04:46:ed:18:4f:4c:03:18:03:3c:aa:3e:b7:1c:81:
                    f7:0e:06:d2:d9:8e:53:18:b7:f4:a3:a9:6b:d3:ab:
                    9f:5e:52:6e:48:e5:da:ce:d1:a7:89:14:55:f5:2e:
                    03:e0:42:a5:fc:3f:e7:6a:8d:d9:cf:0d:d9:90:a7:
                    4a:0d:6b:27:2b
                ASN1 OID: SM2
        X509v3 extensions:
            X509v3 Subject Key Identifier:
                D7:88:1E:5B:30:5F:FB:DF:F5:D3:97:3C:E6:74:07:CA:51:A7:FC:99
            X509v3 Authority Key Identifier:
                keyid:30:2A:04:98:E7:26:B1:92:73:D8:2D:A8:4D:E2:B1:4D:71:AE:90:5B

            X509v3 Basic Constraints: critical
                CA:TRUE
            X509v3 Key Usage: critical
                Digital Signature, Certificate Sign, CRL Sign
    Signature Algorithm: SM2-with-SM3
         30:44:02:20:46:04:f3:5a:02:e2:d2:8b:57:60:fb:14:4a:ba:
         f6:10:ae:14:43:00:de:94:22:2f:9e:6b:0b:b4:fc:71:f1:62:
         02:20:30:54:30:05:db:ad:ec:a8:da:2b:96:8b:00:75:fd:c7:
         90:62:a9:aa:ae:a2:7b:c5:ac:b3:9c:36:3b:ba:57:69
-----BEGIN CERTIFICATE-----
MIIBhzCCAS6gAwIBAgIUbjrWyWcJ9GLbfCwzizTszQTcPnMwCgYIKoEcz1UBg3Uw
EDEOMAwGA1UEAwwFc20tY2EwHhcNMjIwNjA4MDYyODI3WhcNMzIwNjA1MDYyODI3
WjATMREwDwYDVQQDDAhzbS1pbnRjYTBZMBMGByqGSM49AgEGCCqBHM9VAYItA0IA
BEbtGE9MAxgDPKo+txyB9w4G0tmOUxi39KOpa9Orn15Sbkjl2s7Rp4kUVfUuA+BC
pfw/52qN2c8N2ZCnSg1rJyujYzBhMB0GA1UdDgQWBBTXiB5bMF/73/XTlzzmdAfK
Uaf8mTAfBgNVHSMEGDAWgBQwKgSY5yaxknPYLahN4rFNca6QWzAPBgNVHRMBAf8E
BTADAQH/MA4GA1UdDwEB/wQEAwIBhjAKBggqgRzPVQGDdQNHADBEAiBGBPNaAuLS
i1dg+xRKuvYQrhRDAN6UIi+eawu0/HHxYgIgMFQwBdut7KjaK5aLAHX9x5Biqaqu
onvFrLOcNju6V2k=
-----END CERTIFICATE-----
