Certificate:
    Data:
        Version: 3 (0x2)
        Serial Number:
            bb:64:52:96:c8:a4:f8:ab:27:53:6f:67:e7:08:f6:01:e5:79:3a
        Signature Algorithm: SM2-with-SM3
        Issuer: CN = tlcp-ca
        Validity
            Not Before: May 11 11:56:38 2022 GMT
            Not After : May  8 11:56:38 2032 GMT
        Subject: CN = tlcp-ca
        Subject Public Key Info:
            Public Key Algorithm: id-ecPublicKey
                Public-Key: (256 bit)
                pub:
                    04:e0:a7:e6:63:c7:b5:10:ae:ef:3e:62:1b:f7:39:
                    b4:5c:15:2d:95:8e:9f:c5:90:ff:73:b8:a4:60:ef:
                    17:cb:26:b9:46:94:cd:53:22:5c:5c:1d:a8:66:ba:
                    fb:b3:7b:7a:bc:14:2a:de:b7:20:aa:93:15:bf:eb:
                    0c:19:c4:01:33
                ASN1 OID: SM2
        X509v3 extensions:
            X509v3 Subject Key Identifier:
                40:8F:25:C0:A6:73:C4:FF:CE:A6:86:C5:E1:43:72:3C:6D:C9:8A:87
            X509v3 Authority Key Identifier:
                keyid:40:8F:25:C0:A6:73:C4:FF:CE:A6:86:C5:E1:43:72:3C:6D:C9:8A:87

            X509v3 Basic Constraints: critical
                CA:TRUE
            X509v3 Key Usage: critical
                Digital Signature, Certificate Sign, CRL Sign
    Signature Algorithm: SM2-with-SM3
         30:46:02:21:00:9d:b0:00:2f:b6:b7:fa:64:f8:31:3b:c4:1d:
         b1:70:b4:eb:8a:23:ec:6d:12:63:6c:e1:8d:8b:66:9a:15:4a:
         a0:02:21:00:e8:ed:cd:a0:a7:40:2a:32:5d:02:c3:be:fd:7c:
         2d:0e:e6:2a:8c:ac:78:1b:f8:58:29:b7:76:09:b3:7a:d5:4c
-----BEGIN CERTIFICATE-----
MIIBijCCAS+gAwIBAgIUALtkUpbIpPirJ1NvZ+cI9gHleTowCgYIKoEcz1UBg3Uw
EjEQMA4GA1UEAwwHdGxjcC1jYTAeFw0yMjA1MTExMTU2MzhaFw0zMjA1MDgxMTU2
MzhaMBIxEDAOBgNVBAMMB3RsY3AtY2EwWTATBgcqhkjOPQIBBggqgRzPVQGCLQNC
AATgp+Zjx7UQru8+Yhv3ObRcFS2Vjp/FkP9zuKRg7xfLJrlGlM1TIlxcHahmuvuz
e3q8FCretyCqkxW/6wwZxAEzo2MwYTAdBgNVHQ4EFgQUQI8lwKZzxP/OpobF4UNy
PG3JiocwHwYDVR0jBBgwFoAUQI8lwKZzxP/OpobF4UNyPG3JiocwDwYDVR0TAQH/
BAUwAwEB/zAOBgNVHQ8BAf8EBAMCAYYwCgYIKoEcz1UBg3UDSQAwRgIhAJ2wAC+2
t/pk+DE7xB2xcLTriiPsbRJjbOGNi2aaFUqgAiEA6O3NoKdAKjJdAsO+/XwtDuYq
jKx4G/hYKbd2CbN61Uw=
-----END CERTIFICATE-----

Certificate:
    Data:
        Version: 3 (0x2)
        Serial Number:
            29:e8:a8:27:a6:b1:87:f6:16:2f:08:b1:9d:31:47:6e:0a:ba:39:3f
        Signature Algorithm: sha256WithRSAEncryption
        Issuer: CN = rsa-ca
        Validity
            Not Before: Jun  8 06:28:27 2022 GMT
            Not After : Jun  5 06:28:27 2032 GMT
        Subject: CN = rsa-ca
        Subject Public Key Info:
            Public Key Algorithm: rsaEncryption
                RSA Public-Key: (2048 bit)
                Modulus:
                    00:ac:ca:50:cf:8d:49:9b:84:eb:36:98:0f:c8:00:
                    40:be:eb:0e:54:41:3d:74:5c:b3:49:a5:c8:7f:68:
                    d7:d7:0b:92:48:5e:33:ec:7c:8c:12:5d:0e:5c:4e:
                    b1:27:b6:48:36:c8:dc:19:3c:12:d2:c3:75:f1:ee:
                    92:ac:10:0c:4d:ca:e2:61:8c:55:71:60:aa:6c:be:
                    f4:1b:22:af:57:be:43:65:42:ce:1a:3f:7f:b3:9f:
                    cc:c0:a0:fa:0d:1d:37:4e:25:94:1c:9f:fd:3d:ea:
                    20:2d:75:39:f0:f1:71:2e:ff:07:9a:70:83:d9:2a:
                    35:b3:97:0b:9f:91:e7:f8:1c:f0:95:2c:11:7f:24:
                    ad:cc:fb:17:84:f1:13:04:63:58:40:84:13:79:4c:
                    b6:75:50:97:98:7c:3c:bc:63:4a:15:f7:5b:c1:98:
                    da:06:fb:d8:f0:3e:4c:ac:ec:b4:d0:11:18:d2:a8:
                    4a:ee:3c:1d:fc:f6:aa:79:27:4e:2e:f1:dc:7d:64:
                    c9:fe:27:82:48:1d:7a:8b:32:c1:82:dd:31:8f:32:
                    c7:b8:33:eb:a0:12:7b:0f:44:3a:ee:0a:e7:3b:ca:
                    50:6f:f0:25:d4:85:a6:1d:bd:d4:68:f0:45:ed:48:
                    8e:63:1a:8a:c3:04:49:ff:b9:b1:b7:c8:e1:42:df:
                    56:2b
                Exponent: 65537 (0x10001)
        X509v3 extensions:
            X509v3 Subject Key Identifier:
                BD:6A:DB:8F:7F:D0:F5:84:05:89:89:5D:87:B1:B7:EB:CE:E3:69:D3
            X509v3 Authority Key Identifier:
                keyid:BD:6A:DB:8F:7F:D0:F5:84:05:89:89:5D:87:B1:B7:EB:CE:E3:69:D3

            X509v3 Basic Constraints: critical
                CA:TRUE
            X509v3 Key Usage: critical
                Digital Signature, Certificate Sign, CRL Sign
    Signature Algorithm: sha256WithRSAEncryption
         15:ac:8d:53:40:42:24:58:7a:27:21:0c:a3:bf:89:30:c1:44:
         fc:c9:0a:43:e8:d9:72:8b:5a:01:d9:37:0c:19:14:88:03:ae:
         6a:d6:3d:85:ba:13:9f:fc:1d:40:d0:99:a1:e9:e7:24:11:78:
         c7:bd:65:80:49:1b:43:b0:d3:dc:05:88:4d:53:c0:96:a4:a9:
         bd:df:72:d5:3d:e0:ee:75:34:9b:80:80:f6:a0:4f:2c:51:67:
         23:5a:1f:f1:ac:44:26:a8:dd:61:b6:4e:d7:75:9d:88:72:13:
         b6:53:dd:68:50:b2:25:9e:5a:ed:80:1a:7e:f4:9d:ef:83:b0:
         1c:64:84:3d:ec:bc:9d:82:bb:83:e3:10:1c:67:00:0e:7c:9d:
         42:69:4a:a7:43:50:a6:26:50:c7:04:78:4c:11:e3:7d:4c:5e:
         95:88:ac:a0:08:1b:a6:a6:c0:cd:bc:7a:b5:44:01:e8:e5:d1:
         dd:5d:8b:2d:bf:c3:0a:1c:17:cb:e1:71:4d:27:cc:1f:af:26:
         60:92:13:ab:68:9f:79:5c:00:16:59:67:a6:4c:8c:80:f0:aa:
         65:04:1f:92:62:62:87:07:16:a0:87:a3:80:27:af:69:10:d9:
         96:a8:bb:98:21:d0:dc:0c:06:ed:47:91:4f:93:d4:20:1d:32:
         76:9d:b7:a3
-----BEGIN CERTIFICATE-----
MIIDEzCCAfugAwIBAgIUKeioJ6axh/YWLwixnTFHbgq6OT8wDQYJKoZIhvcNAQEL
BQAwETEPMA0GA1UEAwwGcnNhLWNhMB4XDTIyMDYwODA2MjgyN1oXDTMyMDYwNTA2
MjgyN1owETEPMA0GA1UEAwwGcnNhLWNhMIIBIjANBgkqhkiG9w0BAQEFAAOCAQ8A
MIIBCgKCAQEArMpQz41Jm4TrNpgPyABAvusOVEE9dFyzSaXIf2jX1wuSSF4z7HyM
El0OXE6xJ7ZINsjcGTwS0sN18e6SrBAMTcriYYxVcWCqbL70GyKvV75DZULOGj9/
s5/MwKD6DR03TiWUHJ/9PeogLXU58PFxLv8HmnCD2So1s5cLn5Hn+BzwlSwRfySt
zPsXhPETBGNYQIQTeUy2dVCXmHw8vGNKFfdbwZjaBvvY8D5MrOy00BEY0qhK7jwd
/PaqeSdOLvHcfWTJ/ieCSB16izLBgt0xjzLHuDProBJ7D0Q67grnO8pQb/Al1IWm
Hb3UaPBF7UiOYxqKwwRJ/7mxt8jhQt9WKwIDAQABo2MwYTAdBgNVHQ4EFgQUvWrb
j3/Q9YQFiYldh7G3687jadMwHwYDVR0jBBgwFoAUvWrbj3/Q9YQFiYldh7G3687j
adMwDwYDVR0TAQH/BAUwAwEB/zAOBgNVHQ8BAf8EBAMCAYYwDQYJKoZIhvcNAQEL
BQADggEBABWsjVNAQiRYeichDKO/iTDBRPzJCkPo2XKLWgHZNwwZFIgDrmrWPYW6
E5/8HUDQmaHp5yQReMe9ZYBJG0Ow09wFiE1TwJakqb3fctU94O51NJuAgPagTyxR
ZyNaH/GsRCao3WG2Ttd1nYhyE7ZT3WhQsiWeWu2AGn70ne+DsBxkhD3svJ2Cu4Pj
EBxnAA58nUJpSqdDUKYmUMcEeEwR431MXpWIrKAIG6amwM28erVEAejl0d1diy2/
wwocF8vhcU0nzB+vJmCSE6ton3lcABZZZ6ZMjIDwqmUEH5JiYocHFqCHo4Anr2kQ
2Zaou5gh0NwMBu1HkU+T1CAdMnadt6M=
-----END CERTIFICATE-----
