Certificate:
    Data:
        Version: 3 (0x2)
        Serial Number:
            69:8e:51:5d:ee:08:71:4b:a0:2b:50:0a:86:bc:9b:0e:15:03:ea:93
        Signature Algorithm: sha256WithRSAEncryption
        Issuer: CN = rsa-ca
        Validity
            Not Before: Jun  8 06:28:27 2022 GMT
            Not After : Jun  5 06:28:27 2032 GMT
        Subject: CN = rsa-intca
        Subject Public Key Info:
            Public Key Algorithm: rsaEncryption
                RSA Public-Key: (2048 bit)
                Modulus:
                    00:9f:fd:3c:b2:43:df:3f:51:53:0d:7e:96:98:6a:
                    81:6d:b2:06:4c:26:8e:7c:19:d1:8a:d1:3a:09:ce:
                    b6:b7:3d:d4:f0:61:f7:f4:4c:f2:4a:96:9d:81:34:
                    af:e6:97:c5:da:58:74:8c:e7:ae:b0:26:98:7a:10:
                    0e:48:4f:93:7c:78:5f:7b:b3:6f:5f:45:4e:07:1a:
                    62:c1:53:81:77:5b:cb:ed:6f:b2:bf:89:09:e3:4f:
                    a5:da:29:43:a4:09:06:fc:49:bd:cd:25:dd:a1:9e:
                    19:df:52:9a:46:ea:e0:42:b4:32:e2:fc:65:e5:4c:
                    7b:98:d6:46:29:0a:1d:2f:f7:4e:97:c3:a5:ad:bd:
                    43:ee:a0:ff:3d:88:a9:e1:8d:6c:1a:9f:e4:fd:1b:
                    18:65:b3:07:61:96:8e:c5:21:b4:d0:39:c1:38:82:
                    88:89:ca:0a:50:ef:10:76:b5:25:67:e4:b6:a7:8e:
                    55:bc:df:e5:d4:eb:1f:53:45:12:6b:9f:8e:7e:45:
                    64:ef:1b:59:74:14:15:fc:69:1b:36:3e:d7:5e:69:
                    1c:67:c2:22:6b:38:a9:cb:9d:c3:be:4f:6d:9e:ed:
                    9c:89:f7:73:db:09:e3:b6:e7:d5:56:be:4c:5e:b5:
                    5b:db:45:8f:3b:01:72:7c:bd:29:bc:f9:85:7e:61:
                    73:b3
                Exponent: 65537 (0x10001)
        X509v3 extensions:
            X509v3 Subject Key Identifier:
                C4:F3:98:6A:12:75:25:22:AD:B3:11:2D:FB:02:9F:1F:82:81:A8:02
            X509v3 Authority Key Identifier:
                keyid:BD:6A:DB:8F:7F:D0:F5:84:05:89:89:5D:87:B1:B7:EB:CE:E3:69:D3

            X509v3 Basic Constraints: critical
                CA:TRUE
            X509v3 Key Usage: critical
                Digital Signature, Certificate Sign, CRL Sign
    Signature Algorithm: sha256WithRSAEncryption
         18:42:2e:96:3c:bf:8e:8c:27:4f:9a:72:ba:49:68:98:54:b0:
         db:60:65:0d:e1:47:e2:da:12:a3:72:62:dd:53:18:fc:10:5b:
         26:10:5a:00:c9:b8:97:6f:d7:3e:96:9a:5f:dd:09:43:54:f3:
         10:b5:e8:ad:d6:0d:64:47:29:cf:36:c7:bf:2e:26:15:15:65:
         3e:76:2e:06:18:95:c8:64:d9:28:81:a6:1b:be:ee:70:5f:8a:
         ce:43:df:b9:ab:12:a1:5a:9e:9c:b9:d3:b2:e6:5c:13:0b:62:
         22:18:0b:11:26:f3:59:48:4b:70:7a:b0:64:27:7b:8f:52:eb:
         6b:8d:5a:df:a1:07:f8:e3:1b:7c:31:c2:b3:7a:26:7f:19:9a:
         fb:a9:65:40:8e:0d:48:2c:c0:c4:50:b4:1b:dc:55:a4:6a:2f:
         15:e2:1a:76:3f:59:44:8c:78:a6:b8:ce:a1:88:ce:7e:09:6a:
         54:b9:f4:60:cf:f5:bb:06:13:13:16:dd:99:61:59:00:5b:c0:
         34:9e:1f:b7:a7:bd:b7:b1:00:4e:9e:6f:d9:8b:47:d8:b9:87:
         c9:5b:f2:8e:d4:48:c1:b5:32:22:1b:a7:88:25:3e:5b:81:9e:
         57:74:d3:b3:bf:1c:bc:4a:b2:73:94:bc:d0:46:a0:f7:58:6e:
         ea:33:af:80
-----BEGIN CERTIFICATE-----
MIIDFjCCAf6gAwIBAgIUaY5RXe4IcUugK1AKhrybDhUD6pMwDQYJKoZIhvcNAQEL
BQAwETEPMA0GA1UEAwwGcnNhLWNhMB4XDTIyMDYwODA2MjgyN1oXDTMyMDYwNTA2
MjgyN1owFDESMBAGA1UEAwwJcnNhLWludGNhMIIBIjANBgkqhkiG9w0BAQEFAAOC
AQ8AMIIBCgKCAQEAn/08skPfP1FTDX6WmGqBbbIGTCaOfBnRitE6Cc62tz3U8GH3
9EzySpadgTSv5pfF2lh0jOeusCaYehAOSE+TfHhfe7NvX0VOBxpiwVOBd1vL7W+y
v4kJ40+l2ilDpAkG/Em9zSXdoZ4Z31KaRurgQrQy4vxl5Ux7mNZGKQodL/dOl8Ol
rb1D7qD/PYip4Y1sGp/k/RsYZbMHYZaOxSG00DnBOIKIicoKUO8QdrUlZ+S2p45V
vN/l1OsfU0USa5+OfkVk7xtZdBQV/GkbNj7XXmkcZ8Iiazipy53Dvk9tnu2cifdz
2wnjtufVVr5MXrVb20WPOwFyfL0pvPmFfmFzswIDAQABo2MwYTAdBgNVHQ4EFgQU
xPOYahJ1JSKtsxEt+wKfH4KBqAIwHwYDVR0jBBgwFoAUvWrbj3/Q9YQFiYldh7G3
687jadMwDwYDVR0TAQH/BAUwAwEB/zAOBgNVHQ8BAf8EBAMCAYYwDQYJKoZIhvcN
AQELBQADggEBABhCLpY8v46MJ0+acrpJaJhUsNtgZQ3hR+LaEqNyYt1TGPwQWyYQ
WgDJuJdv1z6Wml/dCUNU8xC16K3WDWRHKc82x78uJhUVZT52LgYYlchk2SiBphu+
7nBfis5D37mrEqFanpy507LmXBMLYiIYCxEm81lIS3B6sGQne49S62uNWt+hB/jj
G3wxwrN6Jn8ZmvupZUCODUgswMRQtBvcVaRqLxXiGnY/WUSMeKa4zqGIzn4JalS5
9GDP9bsGExMW3ZlhWQBbwDSeH7envbexAE6eb9mLR9i5h8lb8o7USMG1MiIbp4gl
PluBnld007O/HLxKsnOUvNBGoPdYbuozr4A=
-----END CERTIFICATE-----
